; ModuleID = '11/573.c'
source_filename = "11/573.c"
target datalayout = "e-m:e-p270:32:32-p271:32:32-p272:64:64-i64:64-f80:128-n8:16:32:64-S128"
target triple = "x86_64-pc-linux-gnu"

@.str = private unnamed_addr constant [9 x i8] c"%d %d %d\00", align 1
@.str.1 = private unnamed_addr constant [4 x i8] c"%d\0A\00", align 1

; Function Attrs: noinline nounwind uwtable
define dso_local i32 @main() #0 {
  %1 = alloca i32, align 4
  %2 = alloca i32, align 4
  %3 = alloca i32, align 4
  %4 = alloca i32, align 4
  %5 = alloca i32, align 4
  store i32 0, i32* %1, align 4
  %6 = call i32 (i8*, ...) @__isoc99_scanf(i8* getelementptr inbounds ([9 x i8], [9 x i8]* @.str, i64 0, i64 0), i32* %2, i32* %3, i32* %4)
  %7 = load i32, i32* %2, align 4
  %8 = srem i32 %7, 400
  %9 = icmp eq i32 %8, 0
  br i1 %9, label %18, label %10

10:                                               ; preds = %0
  %11 = load i32, i32* %2, align 4
  %12 = srem i32 %11, 4
  %13 = icmp eq i32 %12, 0
  br i1 %13, label %14, label %55

14:                                               ; preds = %10
  %15 = load i32, i32* %2, align 4
  %16 = srem i32 %15, 100
  %17 = icmp ne i32 %16, 0
  br i1 %17, label %18, label %55

18:                                               ; preds = %14, %0
  %19 = load i32, i32* %3, align 4
  switch i32 %19, label %52 [
    i32 1, label %20
    i32 2, label %22
    i32 3, label %25
    i32 4, label %28
    i32 5, label %31
    i32 6, label %34
    i32 7, label %37
    i32 8, label %40
    i32 10, label %43
    i32 11, label %46
    i32 12, label %49
  ]

20:                                               ; preds = %18
  %21 = load i32, i32* %4, align 4
  store i32 %21, i32* %5, align 4
  br label %52

22:                                               ; preds = %18
  %23 = load i32, i32* %4, align 4
  %24 = add nsw i32 31, %23
  store i32 %24, i32* %5, align 4
  br label %52

25:                                               ; preds = %18
  %26 = load i32, i32* %4, align 4
  %27 = add nsw i32 60, %26
  store i32 %27, i32* %5, align 4
  br label %52

28:                                               ; preds = %18
  %29 = load i32, i32* %4, align 4
  %30 = add nsw i32 91, %29
  store i32 %30, i32* %5, align 4
  br label %52

31:                                               ; preds = %18
  %32 = load i32, i32* %4, align 4
  %33 = add nsw i32 121, %32
  store i32 %33, i32* %5, align 4
  br label %52

34:                                               ; preds = %18
  %35 = load i32, i32* %4, align 4
  %36 = add nsw i32 152, %35
  store i32 %36, i32* %5, align 4
  br label %52

37:                                               ; preds = %18
  %38 = load i32, i32* %4, align 4
  %39 = add nsw i32 182, %38
  store i32 %39, i32* %5, align 4
  br label %52

40:                                               ; preds = %18
  %41 = load i32, i32* %4, align 4
  %42 = add nsw i32 213, %41
  store i32 %42, i32* %5, align 4
  br label %52

43:                                               ; preds = %18
  %44 = load i32, i32* %4, align 4
  %45 = add nsw i32 274, %44
  store i32 %45, i32* %5, align 4
  br label %52

46:                                               ; preds = %18
  %47 = load i32, i32* %4, align 4
  %48 = add nsw i32 305, %47
  store i32 %48, i32* %5, align 4
  br label %52

49:                                               ; preds = %18
  %50 = load i32, i32* %4, align 4
  %51 = add nsw i32 335, %50
  store i32 %51, i32* %5, align 4
  br label %52

52:                                               ; preds = %18, %49, %46, %43, %40, %37, %34, %31, %28, %25, %22, %20
  %53 = load i32, i32* %5, align 4
  %54 = call i32 (i8*, ...) @printf(i8* getelementptr inbounds ([4 x i8], [4 x i8]* @.str.1, i64 0, i64 0), i32 %53)
  br label %92

55:                                               ; preds = %14, %10
  %56 = load i32, i32* %3, align 4
  switch i32 %56, label %89 [
    i32 1, label %57
    i32 2, label %59
    i32 3, label %62
    i32 4, label %65
    i32 5, label %68
    i32 6, label %71
    i32 7, label %74
    i32 8, label %77
    i32 10, label %80
    i32 11, label %83
    i32 12, label %86
  ]

57:                                               ; preds = %55
  %58 = load i32, i32* %4, align 4
  store i32 %58, i32* %5, align 4
  br label %89

59:                                               ; preds = %55
  %60 = load i32, i32* %4, align 4
  %61 = add nsw i32 31, %60
  store i32 %61, i32* %5, align 4
  br label %89

62:                                               ; preds = %55
  %63 = load i32, i32* %4, align 4
  %64 = add nsw i32 59, %63
  store i32 %64, i32* %5, align 4
  br label %89

65:                                               ; preds = %55
  %66 = load i32, i32* %4, align 4
  %67 = add nsw i32 90, %66
  store i32 %67, i32* %5, align 4
  br label %89

68:                                               ; preds = %55
  %69 = load i32, i32* %4, align 4
  %70 = add nsw i32 120, %69
  store i32 %70, i32* %5, align 4
  br label %89

71:                                               ; preds = %55
  %72 = load i32, i32* %4, align 4
  %73 = add nsw i32 151, %72
  store i32 %73, i32* %5, align 4
  br label %89

74:                                               ; preds = %55
  %75 = load i32, i32* %4, align 4
  %76 = add nsw i32 181, %75
  store i32 %76, i32* %5, align 4
  br label %89

77:                                               ; preds = %55
  %78 = load i32, i32* %4, align 4
  %79 = add nsw i32 212, %78
  store i32 %79, i32* %5, align 4
  br label %89

80:                                               ; preds = %55
  %81 = load i32, i32* %4, align 4
  %82 = add nsw i32 273, %81
  store i32 %82, i32* %5, align 4
  br label %89

83:                                               ; preds = %55
  %84 = load i32, i32* %4, align 4
  %85 = add nsw i32 304, %84
  store i32 %85, i32* %5, align 4
  br label %89

86:                                               ; preds = %55
  %87 = load i32, i32* %4, align 4
  %88 = add nsw i32 334, %87
  store i32 %88, i32* %5, align 4
  br label %89

89:                                               ; preds = %55, %86, %83, %80, %77, %74, %71, %68, %65, %62, %59, %57
  %90 = load i32, i32* %5, align 4
  %91 = call i32 (i8*, ...) @printf(i8* getelementptr inbounds ([4 x i8], [4 x i8]* @.str.1, i64 0, i64 0), i32 %90)
  br label %92

92:                                               ; preds = %89, %52
  ret i32 0
}

declare dso_local i32 @__isoc99_scanf(i8*, ...) #1

declare dso_local i32 @printf(i8*, ...) #1


!llvm.module.flags = !{!0}
!llvm.ident = !{!1}

!0 = !{i32 1, !"wchar_size", i32 4}
!1 = !{!"clang version 10.0.0-4ubuntu1 "}
